; ModuleID = '44/1373.c'
source_filename = "44/1373.c"
target datalayout = "e-m:e-p270:32:32-p271:32:32-p272:64:64-i64:64-f80:128-n8:16:32:64-S128"
target triple = "x86_64-pc-linux-gnu"

@.str = private unnamed_addr constant [3 x i8] c"%d\00", align 1
@.str.1 = private unnamed_addr constant [5 x i8] c"-%d\0A\00", align 1
@.str.2 = private unnamed_addr constant [4 x i8] c"%d\0A\00", align 1

; Function Attrs: noinline nounwind uwtable
define dso_local i32 @fan(i32 %0) #0 {
  %2 = alloca i32, align 4
  %3 = alloca i32, align 4
  %4 = alloca i32, align 4
  %5 = alloca i32, align 4
  %6 = alloca i32, align 4
  %7 = alloca [100 x i32], align 16
  store i32 %0, i32* %3, align 4
  store i32 0, i32* %4, align 4
  %8 = load i32, i32* %3, align 4
  %9 = icmp eq i32 %8, 0
  br i1 %9, label %10, label %12

10:                                               ; preds = %1
  %11 = load i32, i32* %3, align 4
  store i32 %11, i32* %2, align 4
  br label %52

12:                                               ; preds = %1
  store i32 0, i32* %6, align 4
  br label %13

13:                                               ; preds = %30, %12
  %14 = load i32, i32* %6, align 4
  %15 = icmp slt i32 %14, 100
  br i1 %15, label %16, label %33

16:                                               ; preds = %13
  %17 = load i32, i32* %3, align 4
  %18 = srem i32 %17, 10
  %19 = load i32, i32* %6, align 4
  %20 = sext i32 %19 to i64
  %21 = getelementptr inbounds [100 x i32], [100 x i32]* %7, i64 0, i64 %20
  store i32 %18, i32* %21, align 4
  %22 = load i32, i32* %3, align 4
  %23 = sdiv i32 %22, 10
  store i32 %23, i32* %3, align 4
  %24 = load i32, i32* %4, align 4
  %25 = add nsw i32 %24, 1
  store i32 %25, i32* %4, align 4
  %26 = load i32, i32* %3, align 4
  %27 = icmp eq i32 %26, 0
  br i1 %27, label %28, label %29

28:                                               ; preds = %16
  br label %33

29:                                               ; preds = %16
  br label %30

30:                                               ; preds = %29
  %31 = load i32, i32* %6, align 4
  %32 = add nsw i32 %31, 1
  store i32 %32, i32* %6, align 4
  br label %13

33:                                               ; preds = %28, %13
  br label %34

34:                                               ; preds = %33
  store i32 0, i32* %6, align 4
  br label %35

35:                                               ; preds = %47, %34
  %36 = load i32, i32* %6, align 4
  %37 = load i32, i32* %4, align 4
  %38 = icmp slt i32 %36, %37
  br i1 %38, label %39, label %50

39:                                               ; preds = %35
  %40 = load i32, i32* %3, align 4
  %41 = mul nsw i32 %40, 10
  %42 = load i32, i32* %6, align 4
  %43 = sext i32 %42 to i64
  %44 = getelementptr inbounds [100 x i32], [100 x i32]* %7, i64 0, i64 %43
  %45 = load i32, i32* %44, align 4
  %46 = add nsw i32 %41, %45
  store i32 %46, i32* %3, align 4
  br label %47

47:                                               ; preds = %39
  %48 = load i32, i32* %6, align 4
  %49 = add nsw i32 %48, 1
  store i32 %49, i32* %6, align 4
  br label %35

50:                                               ; preds = %35
  %51 = load i32, i32* %3, align 4
  store i32 %51, i32* %2, align 4
  br label %52

52:                                               ; preds = %50, %10
  %53 = load i32, i32* %2, align 4
  ret i32 %53
}

; Function Attrs: noinline nounwind uwtable
define dso_local i32 @main() #0 {
  %1 = alloca i32, align 4
  %2 = alloca i32, align 4
  %3 = alloca i32, align 4
  %4 = alloca i32, align 4
  %5 = alloca [6 x i32], align 16
  store i32 0, i32* %1, align 4
  store i32 0, i32* %4, align 4
  br label %6

6:                                                ; preds = %14, %0
  %7 = load i32, i32* %4, align 4
  %8 = icmp slt i32 %7, 6
  br i1 %8, label %9, label %17

9:                                                ; preds = %6
  %10 = load i32, i32* %4, align 4
  %11 = sext i32 %10 to i64
  %12 = getelementptr inbounds [6 x i32], [6 x i32]* %5, i64 0, i64 %11
  %13 = call i32 (i8*, ...) @__isoc99_scanf(i8* getelementptr inbounds ([3 x i8], [3 x i8]* @.str, i64 0, i64 0), i32* %12)
  br label %14

14:                                               ; preds = %9
  %15 = load i32, i32* %4, align 4
  %16 = add nsw i32 %15, 1
  store i32 %16, i32* %4, align 4
  br label %6

17:                                               ; preds = %6
  store i32 0, i32* %4, align 4
  br label %18

18:                                               ; preds = %41, %17
  %19 = load i32, i32* %4, align 4
  %20 = icmp slt i32 %19, 6
  br i1 %20, label %21, label %44

21:                                               ; preds = %18
  %22 = load i32, i32* %4, align 4
  %23 = sext i32 %22 to i64
  %24 = getelementptr inbounds [6 x i32], [6 x i32]* %5, i64 0, i64 %23
  %25 = load i32, i32* %24, align 4
  store i32 %25, i32* %2, align 4
  %26 = load i32, i32* %2, align 4
  %27 = icmp slt i32 %26, 0
  br i1 %27, label %28, label %35

28:                                               ; preds = %21
  %29 = load i32, i32* %2, align 4
  %30 = mul nsw i32 %29, -1
  store i32 %30, i32* %2, align 4
  %31 = load i32, i32* %2, align 4
  %32 = call i32 @fan(i32 %31)
  store i32 %32, i32* %3, align 4
  %33 = load i32, i32* %3, align 4
  %34 = call i32 (i8*, ...) @printf(i8* getelementptr inbounds ([5 x i8], [5 x i8]* @.str.1, i64 0, i64 0), i32 %33)
  br label %40

35:                                               ; preds = %21
  %36 = load i32, i32* %2, align 4
  %37 = call i32 @fan(i32 %36)
  store i32 %37, i32* %3, align 4
  %38 = load i32, i32* %3, align 4
  %39 = call i32 (i8*, ...) @printf(i8* getelementptr inbounds ([4 x i8], [4 x i8]* @.str.2, i64 0, i64 0), i32 %38)
  br label %40

40:                                               ; preds = %35, %28
  br label %41

41:                                               ; preds = %40
  %42 = load i32, i32* %4, align 4
  %43 = add nsw i32 %42, 1
  store i32 %43, i32* %4, align 4
  br label %18

44:                                               ; preds = %18
  %45 = call i32 @getchar()
  %46 = call i32 @getchar()
  %47 = load i32, i32* %1, align 4
  ret i32 %47
}

declare dso_local i32 @__isoc99_scanf(i8*, ...) #1

declare dso_local i32 @printf(i8*, ...) #1

declare dso_local i32 @getchar() #1


!llvm.module.flags = !{!0}
!llvm.ident = !{!1}

!0 = !{i32 1, !"wchar_size", i32 4}
!1 = !{!"clang version 10.0.0-4ubuntu1 "}
